target datalayout = "e-m:e-p270:32:32-p271:32:32-p272:64:64-i64:64-i128:128-f80:128-n8:16:32:64-S128"
target triple = "x86_64-pc-linux-gnu"

; Function Attrs: mustprogress nounwind uwtable
define noundef i32 @_ZN3gmx26multiDimArrayIndexToLinearEPKiiS1_(ptr noundef %0, i32 noundef %1, ptr noundef %2) #1 {
  %4 = alloca ptr, align 8
  %5 = alloca i32, align 4
  %6 = alloca ptr, align 8
  %7 = alloca i32, align 4
  %8 = alloca i32, align 4
  %9 = alloca i32, align 4
  store ptr %0, ptr %4, align 8
  store i32 %1, ptr %5, align 4
  store ptr %2, ptr %6, align 8
  store i32 1, ptr %7, align 4
  store i32 0, ptr %8, align 4
  %10 = load i32, ptr %5, align 4
  %11 = sub nsw i32 %10, 1
  store i32 %11, ptr %9, align 4
  br label %12

12:                                               ; preds = %32, %3
  %13 = load i32, ptr %9, align 4
  %14 = icmp sge i32 %13, 0
  br i1 %14, label %15, label %35

15:                                               ; preds = %12
  %16 = load i32, ptr %7, align 4
  %17 = load ptr, ptr %4, align 8
  %18 = load i32, ptr %9, align 4
  %19 = sext i32 %18 to i64
  %20 = getelementptr inbounds i32, ptr %17, i64 %19
  %21 = load i32, ptr %20, align 4
  %22 = mul nsw i32 %16, %21
  %23 = load i32, ptr %8, align 4
  %24 = add nsw i32 %23, %22
  store i32 %24, ptr %8, align 4
  %25 = load ptr, ptr %6, align 8
  %26 = load i32, ptr %9, align 4
  %27 = sext i32 %26 to i64
  %28 = getelementptr inbounds i32, ptr %25, i64 %27
  %29 = load i32, ptr %28, align 4
  %30 = load i32, ptr %7, align 4
  %31 = mul nsw i32 %30, %29
  store i32 %31, ptr %7, align 4
  br label %32

32:                                               ; preds = %15
  %33 = load i32, ptr %9, align 4
  %34 = add nsw i32 %33, -1
  store i32 %34, ptr %9, align 4
  br label %12, !llvm.loop !12

35:                                               ; preds = %12
  %36 = load i32, ptr %8, align 4
  ret i32 %36
}