; Function Attrs: mustprogress nofree norecurse nosync nounwind willreturn memory(argmem: read) uwtable
define noundef i32 @_ZN3gmx26multiDimArrayIndexToLinearEPKiiS1_(ptr nocapture noundef readonly %0, i32 noundef %1, ptr nocapture noundef readonly %2) local_unnamed_addr #4 {
  %4 = icmp sgt i32 %1, 0
  br i1 %4, label %.lr.ph.preheader, label %._crit_edge

.lr.ph.preheader:                                 ; preds = %3
  %5 = zext nneg i32 %1 to i64
  br label %.lr.ph

.lr.ph:                                           ; preds = %.lr.ph.preheader, %.lr.ph
  %indvars.iv = phi i64 [ %5, %.lr.ph.preheader ], [ %indvars.iv.next, %.lr.ph ]
  %.01013 = phi i32 [ 0, %.lr.ph.preheader ], [ %9, %.lr.ph ]
  %.01112 = phi i32 [ 1, %.lr.ph.preheader ], [ %12, %.lr.ph ]
  %indvars.iv.next = add nsw i64 %indvars.iv, -1
  %6 = getelementptr inbounds i32, ptr %0, i64 %indvars.iv.next
  %7 = load i32, ptr %6, align 4
  %8 = mul nsw i32 %7, %.01112
  %9 = add nsw i32 %8, %.01013
  %10 = getelementptr inbounds i32, ptr %2, i64 %indvars.iv.next
  %11 = load i32, ptr %10, align 4
  %12 = mul nsw i32 %11, %.01112
  %13 = icmp ugt i64 %indvars.iv, 1
  br i1 %13, label %.lr.ph, label %._crit_edge, !llvm.loop !12

._crit_edge:                                      ; preds = %.lr.ph, %3
  %.010.lcssa = phi i32 [ 0, %3 ], [ %9, %.lr.ph ]
  ret i32 %.010.lcssa
}